target datalayout = "e-m:e-p270:32:32-p271:32:32-p272:64:64-i64:64-i128:128-f80:128-n8:16:32:64-S128"
target triple = "x86_64-pc-linux-gnu"

%struct._capture_file = type { ptr, i32, ptr, ptr, i8, i8, i8, i64, i16, i32, i32, i32, ptr, i32, i64, i32, i32, i32, i32, i8, i32, %struct.nstime_t, i32, ptr, ptr, ptr, i8, i8, i32, ptr, i8, i8, i8, i8, i8, i32, i32, i8, ptr, i32, i32, i8, %struct.packet_provider_data, i32, i32, %struct.epan_column_info, ptr, ptr, ptr, %struct.wtap_rec, %struct.Buffer, ptr, i64, i32 }
%struct.nstime_t = type { i64, i32 }
%struct.packet_provider_data = type { ptr, ptr, ptr, ptr, ptr, ptr }
%struct.epan_column_info = type { ptr, i32, ptr, ptr, ptr, %struct.col_expr_t, i8, ptr }
%struct.col_expr_t = type { ptr, ptr }
%struct.wtap_rec = type { i32, i32, i32, %struct.nstime_t, i32, %struct.nstime_t, i8, %union.anon, ptr, i8, %struct.Buffer, %struct.Buffer }
%union.anon = type { %struct.wtap_packet_header }
%struct.wtap_packet_header = type { i32, i32, i32, i32, %union.wtap_pseudo_header }
%union.wtap_pseudo_header = type { %struct.erf_mc_phdr }
%struct.erf_mc_phdr = type { %struct.erf_phdr, [16 x %struct.erf_ehdr], %union.anon.1 }
%struct.erf_phdr = type { i64, i8, i8, i16, i16, i16 }
%struct.erf_ehdr = type { i64 }
%union.anon.1 = type { i32 }
%struct.Buffer = type { ptr, i64, i64, i64 }
%struct.epan_dissect = type { ptr, ptr, ptr, %struct._packet_info }
%struct._packet_info = type { ptr, ptr, i32, i32, %struct.nstime_t, %struct.nstime_t, %struct.nstime_t, i8, ptr, ptr, ptr, ptr, %struct._address, %struct._address, %struct._address, %struct._address, %struct._address, %struct._address, i32, ptr, i8, [3 x i8], %struct.anon.3, i32, i32, i32, i32, ptr, i8, ptr, ptr, i16, i16, i32, i32, i16, i32, i32, ptr, ptr, ptr, i8, i8, i16, i16, i16, i32, i16, i16, ptr, ptr, ptr, ptr, ptr, i32, i32 }
%struct._address = type { i32, i32, ptr, ptr }
%struct.anon.3 = type { i8, [3 x i8] }
%struct._frame_data = type <{ i32, i32, i32, i32, i32, [4 x i8], i64, ptr, ptr, ptr, i8, i16, [5 x i8], %struct.nstime_t, %struct.nstime_t, i32, i32 }>

; Function Attrs: null_pointer_is_valid sspstrong uwtable
define internal void @add_packet_to_packet_list(ptr noundef %0, ptr noundef %1, ptr noundef %2, ptr noundef %3, ptr noundef %4, ptr noundef %5, i1 noundef zeroext %6) #1 {
  %8 = alloca ptr, align 8
  %9 = alloca ptr, align 8
  %10 = alloca ptr, align 8
  %11 = alloca ptr, align 8
  %12 = alloca ptr, align 8
  %13 = alloca ptr, align 8
  %14 = alloca i8, align 1
  store ptr %0, ptr %8, align 8
  store ptr %1, ptr %9, align 8
  store ptr %2, ptr %10, align 8
  store ptr %3, ptr %11, align 8
  store ptr %4, ptr %12, align 8
  store ptr %5, ptr %13, align 8
  %15 = zext i1 %6 to i8
  store i8 %15, ptr %14, align 1
  %16 = load ptr, ptr %8, align 8
  %17 = load ptr, ptr %9, align 8
  %18 = getelementptr inbounds nuw %struct._capture_file, ptr %17, i32 0, i32 21
  %19 = load ptr, ptr %9, align 8
  %20 = getelementptr inbounds nuw %struct._capture_file, ptr %19, i32 0, i32 42
  %21 = getelementptr inbounds nuw %struct.packet_provider_data, ptr %20, i32 0, i32 1
  %22 = load ptr, ptr %9, align 8
  %23 = getelementptr inbounds nuw %struct._capture_file, ptr %22, i32 0, i32 42
  %24 = getelementptr inbounds nuw %struct.packet_provider_data, ptr %23, i32 0, i32 2
  %25 = load ptr, ptr %24, align 8
  call void @frame_data_set_before_dissect(ptr noundef %16, ptr noundef %18, ptr noundef %21, ptr noundef %25)
  %26 = load ptr, ptr %8, align 8
  %27 = load ptr, ptr %9, align 8
  %28 = getelementptr inbounds nuw %struct._capture_file, ptr %27, i32 0, i32 42
  %29 = getelementptr inbounds nuw %struct.packet_provider_data, ptr %28, i32 0, i32 3
  store ptr %26, ptr %29, align 8
  %30 = load ptr, ptr %11, align 8
  %31 = icmp ne ptr %30, null
  br i1 %31, label %32, label %35

32:                                               ; preds = %7
  %33 = load ptr, ptr %10, align 8
  %34 = load ptr, ptr %11, align 8
  call void @epan_dissect_prime_with_dfilter(ptr noundef %33, ptr noundef %34)
  br label %35

35:                                               ; preds = %32, %7
  %36 = load ptr, ptr %8, align 8
  %37 = getelementptr inbounds nuw %struct._frame_data, ptr %36, i32 0, i32 11
  %38 = load i16, ptr %37, align 1
  %39 = lshr i16 %38, 3
  %40 = and i16 %39, 1
  %41 = zext i16 %40 to i32
  %42 = icmp ne i32 %41, 0
  br i1 %42, label %45, label %43

43:                                               ; preds = %35
  %44 = load ptr, ptr %10, align 8
  call void @prime_epan_dissect_with_postdissector_wanted_hfids(ptr noundef %44)
  br label %45

45:                                               ; preds = %43, %35
  %46 = load ptr, ptr %8, align 8
  %47 = getelementptr inbounds nuw %struct._frame_data, ptr %46, i32 0, i32 11
  %48 = load i16, ptr %47, align 1
  %49 = and i16 %48, -2
  %50 = or i16 %49, 1
  store i16 %50, ptr %47, align 1
  %51 = load ptr, ptr %10, align 8
  %52 = load ptr, ptr %9, align 8
  %53 = getelementptr inbounds nuw %struct._capture_file, ptr %52, i32 0, i32 8
  %54 = load i16, ptr %53, align 8
  %55 = zext i16 %54 to i32
  %56 = load ptr, ptr %13, align 8
  %57 = load ptr, ptr %8, align 8
  %58 = load ptr, ptr %12, align 8
  call void @epan_dissect_run_with_taps(ptr noundef %51, i32 noundef %55, ptr noundef %56, ptr noundef %57, ptr noundef %58)
  %59 = load ptr, ptr %8, align 8
  %60 = getelementptr inbounds nuw %struct._frame_data, ptr %59, i32 0, i32 11
  %61 = load i16, ptr %60, align 1
  %62 = and i16 %61, 1
  %63 = zext i16 %62 to i32
  %64 = icmp ne i32 %63, 0
  br i1 %64, label %65, label %106

65:                                               ; preds = %45
  %66 = load ptr, ptr %11, align 8
  %67 = icmp ne ptr %66, null
  br i1 %67, label %68, label %106

68:                                               ; preds = %65
  %69 = load ptr, ptr %11, align 8
  %70 = load ptr, ptr %10, align 8
  %71 = call zeroext i1 @dfilter_apply_edt(ptr noundef %69, ptr noundef %70)
  %72 = select i1 %71, i32 1, i32 0
  %73 = load ptr, ptr %8, align 8
  %74 = getelementptr inbounds nuw %struct._frame_data, ptr %73, i32 0, i32 11
  %75 = trunc i32 %72 to i16
  %76 = load i16, ptr %74, align 1
  %77 = and i16 %75, 1
  %78 = and i16 %76, -2
  %79 = or i16 %78, %77
  store i16 %79, ptr %74, align 1
  %80 = load ptr, ptr %8, align 8
  %81 = getelementptr inbounds nuw %struct._frame_data, ptr %80, i32 0, i32 11
  %82 = load i16, ptr %81, align 1
  %83 = and i16 %82, 1
  %84 = zext i16 %83 to i32
  %85 = icmp ne i32 %84, 0
  br i1 %85, label %86, label %105

86:                                               ; preds = %68
  %87 = load ptr, ptr %10, align 8
  %88 = getelementptr inbounds nuw %struct.epan_dissect, ptr %87, i32 0, i32 3
  %89 = getelementptr inbounds nuw %struct._packet_info, ptr %88, i32 0, i32 8
  %90 = load ptr, ptr %89, align 8
  %91 = getelementptr inbounds nuw %struct._frame_data, ptr %90, i32 0, i32 8
  %92 = load ptr, ptr %91, align 8
  %93 = icmp ne ptr %92, null
  br i1 %93, label %94, label %105

94:                                               ; preds = %86
  %95 = load ptr, ptr %10, align 8
  %96 = getelementptr inbounds nuw %struct.epan_dissect, ptr %95, i32 0, i32 3
  %97 = getelementptr inbounds nuw %struct._packet_info, ptr %96, i32 0, i32 8
  %98 = load ptr, ptr %97, align 8
  %99 = getelementptr inbounds nuw %struct._frame_data, ptr %98, i32 0, i32 8
  %100 = load ptr, ptr %99, align 8
  %101 = load ptr, ptr %9, align 8
  %102 = getelementptr inbounds nuw %struct._capture_file, ptr %101, i32 0, i32 42
  %103 = getelementptr inbounds nuw %struct.packet_provider_data, ptr %102, i32 0, i32 4
  %104 = load ptr, ptr %103, align 8
  call void @g_hash_table_foreach(ptr noundef %100, ptr noundef @find_and_mark_frame_depended_upon, ptr noundef %104)
  br label %105

105:                                              ; preds = %94, %86, %68
  br label %106

106:                                              ; preds = %105, %65, %45
  %107 = load ptr, ptr %8, align 8
  %108 = getelementptr inbounds nuw %struct._frame_data, ptr %107, i32 0, i32 11
  %109 = load i16, ptr %108, align 1
  %110 = and i16 %109, 1
  %111 = zext i16 %110 to i32
  %112 = icmp ne i32 %111, 0
  br i1 %112, label %121, label %113

113:                                              ; preds = %106
  %114 = load ptr, ptr %8, align 8
  %115 = getelementptr inbounds nuw %struct._frame_data, ptr %114, i32 0, i32 11
  %116 = load i16, ptr %115, align 1
  %117 = lshr i16 %116, 5
  %118 = and i16 %117, 1
  %119 = zext i16 %118 to i32
  %120 = icmp ne i32 %119, 0
  br i1 %120, label %121, label %131

121:                                              ; preds = %113, %106
  %122 = load ptr, ptr %9, align 8
  %123 = getelementptr inbounds nuw %struct._capture_file, ptr %122, i32 0, i32 15
  %124 = load i32, ptr %123, align 8
  %125 = add i32 %124, 1
  store i32 %125, ptr %123, align 8
  %126 = load ptr, ptr %9, align 8
  %127 = getelementptr inbounds nuw %struct._capture_file, ptr %126, i32 0, i32 15
  %128 = load i32, ptr %127, align 8
  %129 = load ptr, ptr %8, align 8
  %130 = getelementptr inbounds nuw %struct._frame_data, ptr %129, i32 0, i32 1
  store i32 %128, ptr %130, align 4
  br label %131

131:                                              ; preds = %121, %113
  %132 = load i8, ptr %14, align 1, !range !8, !noundef !9
  %133 = trunc i8 %132 to i1
  br i1 %133, label %134, label %138

134:                                              ; preds = %131
  %135 = load ptr, ptr %12, align 8
  %136 = load ptr, ptr %8, align 8
  %137 = call i32 @packet_list_append(ptr noundef %135, ptr noundef %136)
  br label %138

138:                                              ; preds = %134, %131
  %139 = load ptr, ptr %8, align 8
  %140 = getelementptr inbounds nuw %struct._frame_data, ptr %139, i32 0, i32 11
  %141 = load i16, ptr %140, align 1
  %142 = and i16 %141, 1
  %143 = zext i16 %142 to i32
  %144 = icmp ne i32 %143, 0
  br i1 %144, label %153, label %145

145:                                              ; preds = %138
  %146 = load ptr, ptr %8, align 8
  %147 = getelementptr inbounds nuw %struct._frame_data, ptr %146, i32 0, i32 11
  %148 = load i16, ptr %147, align 1
  %149 = lshr i16 %148, 5
  %150 = and i16 %149, 1
  %151 = zext i16 %150 to i32
  %152 = icmp ne i32 %151, 0
  br i1 %152, label %153, label %186

153:                                              ; preds = %145, %138
  %154 = load ptr, ptr %8, align 8
  %155 = load ptr, ptr %9, align 8
  %156 = getelementptr inbounds nuw %struct._capture_file, ptr %155, i32 0, i32 53
  call void @frame_data_set_after_dissect(ptr noundef %154, ptr noundef %156)
  %157 = load ptr, ptr %8, align 8
  %158 = getelementptr inbounds nuw %struct._frame_data, ptr %157, i32 0, i32 11
  %159 = load i16, ptr %158, align 1
  %160 = lshr i16 %159, 7
  %161 = and i16 %160, 1
  %162 = zext i16 %161 to i32
  %163 = icmp ne i32 %162, 0
  br i1 %163, label %164, label %169

164:                                              ; preds = %153
  %165 = load ptr, ptr %8, align 8
  %166 = load ptr, ptr %9, align 8
  %167 = getelementptr inbounds nuw %struct._capture_file, ptr %166, i32 0, i32 42
  %168 = getelementptr inbounds nuw %struct.packet_provider_data, ptr %167, i32 0, i32 2
  store ptr %165, ptr %168, align 8
  br label %169

169:                                              ; preds = %164, %153
  %170 = load ptr, ptr %9, align 8
  %171 = getelementptr inbounds nuw %struct._capture_file, ptr %170, i32 0, i32 43
  %172 = load i32, ptr %171, align 8
  %173 = icmp eq i32 %172, 0
  br i1 %173, label %174, label %180

174:                                              ; preds = %169
  %175 = load ptr, ptr %8, align 8
  %176 = getelementptr inbounds nuw %struct._frame_data, ptr %175, i32 0, i32 0
  %177 = load i32, ptr %176, align 8
  %178 = load ptr, ptr %9, align 8
  %179 = getelementptr inbounds nuw %struct._capture_file, ptr %178, i32 0, i32 43
  store i32 %177, ptr %179, align 8
  br label %180

180:                                              ; preds = %174, %169
  %181 = load ptr, ptr %8, align 8
  %182 = getelementptr inbounds nuw %struct._frame_data, ptr %181, i32 0, i32 0
  %183 = load i32, ptr %182, align 8
  %184 = load ptr, ptr %9, align 8
  %185 = getelementptr inbounds nuw %struct._capture_file, ptr %184, i32 0, i32 44
  store i32 %183, ptr %185, align 4
  br label %186

186:                                              ; preds = %180, %145
  %187 = load ptr, ptr %10, align 8
  call void @epan_dissect_reset(ptr noundef %187)
  ret void
}