; Function Attrs: null_pointer_is_valid sspstrong uwtable
define internal fastcc void @add_packet_to_packet_list(ptr noundef %0, ptr noundef %1, ptr noundef %2, ptr noundef %3, ptr noundef %4, ptr noundef %5, i1 noundef zeroext %6) unnamed_addr #1 {
  %8 = getelementptr inbounds nuw i8, ptr %1, i64 112
  %9 = getelementptr inbounds nuw i8, ptr %1, i64 232
  %10 = getelementptr inbounds nuw i8, ptr %1, i64 240
  %11 = load ptr, ptr %10, align 8
  tail call void @frame_data_set_before_dissect(ptr noundef %0, ptr noundef nonnull %8, ptr noundef nonnull %9, ptr noundef %11)
  %12 = getelementptr inbounds nuw i8, ptr %1, i64 248
  store ptr %0, ptr %12, align 8
  %13 = icmp ne ptr %3, null
  br i1 %13, label %14, label %15

14:                                               ; preds = %7
  tail call void @epan_dissect_prime_with_dfilter(ptr noundef %2, ptr noundef nonnull %3)
  br label %15

15:                                               ; preds = %14, %7
  %16 = getelementptr inbounds nuw i8, ptr %0, i64 57
  %17 = load i16, ptr %16, align 1
  %18 = and i16 %17, 8
  %.not = icmp eq i16 %18, 0
  br i1 %.not, label %19, label %20

19:                                               ; preds = %15
  tail call void @prime_epan_dissect_with_postdissector_wanted_hfids(ptr noundef %2)
  %.pre = load i16, ptr %16, align 1
  br label %20

20:                                               ; preds = %19, %15
  %21 = phi i16 [ %.pre, %19 ], [ %17, %15 ]
  %22 = or i16 %21, 1
  store i16 %22, ptr %16, align 1
  %23 = getelementptr inbounds nuw i8, ptr %1, i64 48
  %24 = load i16, ptr %23, align 8
  %25 = zext i16 %24 to i32
  tail call void @epan_dissect_run_with_taps(ptr noundef %2, i32 noundef %25, ptr noundef %5, ptr noundef %0, ptr noundef %4)
  %26 = load i16, ptr %16, align 1
  %27 = and i16 %26, 1
  %28 = icmp ne i16 %27, 0
  %or.cond = and i1 %13, %28
  br i1 %or.cond, label %29, label %43

29:                                               ; preds = %20
  %30 = tail call zeroext i1 @dfilter_apply_edt(ptr noundef nonnull %3, ptr noundef %2)
  %31 = zext i1 %30 to i16
  %32 = load i16, ptr %16, align 1
  %33 = and i16 %32, -2
  %34 = or disjoint i16 %33, %31
  store i16 %34, ptr %16, align 1
  br i1 %30, label %35, label %43

35:                                               ; preds = %29
  %36 = getelementptr inbounds nuw i8, ptr %2, i64 104
  %37 = load ptr, ptr %36, align 8
  %38 = getelementptr inbounds nuw i8, ptr %37, i64 40
  %39 = load ptr, ptr %38, align 8
  %.not48 = icmp eq ptr %39, null
  br i1 %.not48, label %43, label %40

40:                                               ; preds = %35
  %41 = getelementptr inbounds nuw i8, ptr %1, i64 256
  %42 = load ptr, ptr %41, align 8
  tail call void @g_hash_table_foreach(ptr noundef nonnull %39, ptr noundef nonnull @find_and_mark_frame_depended_upon, ptr noundef %42)
  %.pre56 = load i16, ptr %16, align 1
  br label %43

43:                                               ; preds = %29, %35, %40, %20
  %44 = phi i16 [ %34, %29 ], [ %34, %35 ], [ %.pre56, %40 ], [ %26, %20 ]
  %45 = and i16 %44, 33
  %or.cond54 = icmp eq i16 %45, 0
  br i1 %or.cond54, label %51, label %46

46:                                               ; preds = %43
  %47 = getelementptr inbounds nuw i8, ptr %1, i64 88
  %48 = load i32, ptr %47, align 8
  %49 = add i32 %48, 1
  store i32 %49, ptr %47, align 8
  %50 = getelementptr inbounds nuw i8, ptr %0, i64 4
  store i32 %49, ptr %50, align 4
  br label %51

51:                                               ; preds = %43, %46
  br i1 %6, label %52, label %54

52:                                               ; preds = %51
  %53 = tail call i32 @packet_list_append(ptr noundef %4, ptr noundef %0)
  br label %54

54:                                               ; preds = %52, %51
  %55 = load i16, ptr %16, align 1
  %56 = and i16 %55, 33
  %or.cond55 = icmp eq i16 %56, 0
  br i1 %or.cond55, label %69, label %57

57:                                               ; preds = %54
  %58 = getelementptr inbounds nuw i8, ptr %1, i64 736
  tail call void @frame_data_set_after_dissect(ptr noundef %0, ptr noundef nonnull %58)
  %59 = load i16, ptr %16, align 1
  %60 = and i16 %59, 128
  %.not53 = icmp eq i16 %60, 0
  br i1 %.not53, label %62, label %61

61:                                               ; preds = %57
  store ptr %0, ptr %10, align 8
  br label %62

62:                                               ; preds = %61, %57
  %63 = getelementptr inbounds nuw i8, ptr %1, i64 272
  %64 = load i32, ptr %63, align 8
  %65 = icmp eq i32 %64, 0
  %.pre57 = load i32, ptr %0, align 8
  br i1 %65, label %66, label %67

66:                                               ; preds = %62
  store i32 %.pre57, ptr %63, align 8
  br label %67

67:                                               ; preds = %66, %62
  %68 = getelementptr inbounds nuw i8, ptr %1, i64 276
  store i32 %.pre57, ptr %68, align 4
  br label %69

69:                                               ; preds = %54, %67
  tail call void @epan_dissect_reset(ptr noundef %2)
  ret void
}